target datalayout = "e-m:e-p270:32:32-p271:32:32-p272:64:64-i64:64-i128:128-f80:128-n8:16:32:64-S128"
target triple = "x86_64-pc-linux-gnu"

; Function Attrs: nounwind uwtable
define internal void @split_path(ptr noundef %0, ptr noundef %1, ptr noundef %2) #0 {
  %4 = alloca ptr, align 8
  %5 = alloca ptr, align 8
  %6 = alloca ptr, align 8
  %7 = alloca ptr, align 8
  store ptr %0, ptr %4, align 8
  store ptr %1, ptr %5, align 8
  store ptr %2, ptr %6, align 8
  call void @llvm.lifetime.start.p0(i64 8, ptr %7) #10
  %8 = load ptr, ptr %4, align 8
  %9 = call ptr @strrchr(ptr noundef %8, i32 noundef 47) #11
  store ptr %9, ptr %7, align 8
  %10 = load ptr, ptr %7, align 8
  %11 = icmp ne ptr %10, null
  br i1 %11, label %12, label %25

12:                                               ; preds = %3
  %13 = load ptr, ptr %4, align 8
  %14 = load ptr, ptr %7, align 8
  %15 = load ptr, ptr %4, align 8
  %16 = ptrtoint ptr %14 to i64
  %17 = ptrtoint ptr %15 to i64
  %18 = sub i64 %16, %17
  %19 = call ptr @pnstrdup(ptr noundef %13, i64 noundef %18)
  %20 = load ptr, ptr %5, align 8
  store ptr %19, ptr %20, align 8
  %21 = load ptr, ptr %7, align 8
  %22 = getelementptr inbounds i8, ptr %21, i64 1
  %23 = call ptr @pg_strdup(ptr noundef %22)
  %24 = load ptr, ptr %6, align 8
  store ptr %23, ptr %24, align 8
  br label %30

25:                                               ; preds = %3
  %26 = load ptr, ptr %5, align 8
  store ptr null, ptr %26, align 8
  %27 = load ptr, ptr %4, align 8
  %28 = call ptr @pg_strdup(ptr noundef %27)
  %29 = load ptr, ptr %6, align 8
  store ptr %28, ptr %29, align 8
  br label %30

30:                                               ; preds = %25, %12
  call void @llvm.lifetime.end.p0(i64 8, ptr %7) #10
  ret void
}