; Function Attrs: nounwind uwtable
define internal fastcc void @split_path(ptr noundef %0, ptr noundef nonnull writeonly captures(none) initializes((0, 8)) %1, ptr noundef nonnull writeonly captures(none) initializes((0, 8)) %2) unnamed_addr #0 {
  %4 = tail call ptr @strrchr(ptr noundef nonnull dereferenceable(1) %0, i32 noundef 47) #17
  %.not = icmp eq ptr %4, null
  br i1 %.not, label %11, label %5

5:                                                ; preds = %3
  %6 = ptrtoint ptr %4 to i64
  %7 = ptrtoint ptr %0 to i64
  %8 = sub i64 %6, %7
  %9 = tail call ptr @pnstrdup(ptr noundef nonnull %0, i64 noundef %8) #16
  store ptr %9, ptr %1, align 8
  %10 = getelementptr inbounds nuw i8, ptr %4, i64 1
  br label %12

11:                                               ; preds = %3
  store ptr null, ptr %1, align 8
  br label %12

12:                                               ; preds = %11, %5
  %.sink = phi ptr [ %0, %11 ], [ %10, %5 ]
  %13 = tail call ptr @pg_strdup(ptr noundef nonnull %.sink) #16
  store ptr %13, ptr %2, align 8
  ret void
}